target datalayout = "e-m:e-p270:32:32-p271:32:32-p272:64:64-i64:64-i128:128-f80:128-n8:16:32:64-S128"
target triple = "x86_64-unknown-linux-gnu"

%struct.redisServer = type { i32, i64, ptr, ptr, ptr, i32, i32, i32, i32, i32, ptr, ptr, ptr, ptr, ptr, ptr, i32, i32, i64, i32, i32, i32, i32, ptr, i32, i32, [41 x i8], i32, i64, i32, i32, i32, ptr, ptr, i32, i32, i64, ptr, ptr, ptr, ptr, [2 x i32], i32, i32, i32, i32, i32, [16 x ptr], i32, ptr, ptr, i32, [8 x %struct.connListener], i32, %struct.connListener, ptr, ptr, ptr, ptr, ptr, ptr, ptr, ptr, ptr, ptr, i32, ptr, i32, ptr, [3 x %struct.pause_event], [256 x i8], ptr, i64, i32, i32, i32, i32, i64, i32, i32, i32, i32, i32, i64, i64, i64, i64, i64, i64, i64, i64, i64, double, i64, i64, i64, i64, i64, i64, i64, i64, i64, i64, i64, i64, i64, i64, i64, i64, i64, i64, i64, i64, double, i64, i64, i64, i64, i64, ptr, i64, i64, i64, %struct.malloc_stats, i64, i64, i64, i64, i64, i64, i64, i64, i64, i64, i64, i64, double, [4 x i64], i64, i64, i64, i64, i64, i64, i64, i64, i64, i64, [7 x %struct.anon], i64, i64, i64, i64, i64, i64, [4 x %struct.durationStats], i32, i32, i32, i32, i32, i32, i32, i32, i32, i32, i64, i32, i32, i32, i32, i64, i64, i32, i32, i32, i32, i32, ptr, [3 x %struct.clientBufferLimitsConfig], i32, i32, ptr, i32, i32, i32, i32, ptr, ptr, i32, i32, i64, i64, i64, i64, i64, i32, i32, ptr, i32, i32, i64, i64, i64, i64, i64, i32, i32, i64, i32, i32, i32, i32, i32, i32, i32, i32, ptr, i32, i64, i64, i64, i64, ptr, i32, ptr, i32, i32, i32, i64, i64, i64, i64, i32, i32, i32, i32, i32, i32, ptr, i32, i32, ptr, i32, i32, i32, [2 x i32], i32, %struct.redisOpArray, i32, ptr, i32, ptr, i32, i32, i32, i32, i32, i32, i32, [41 x i8], [41 x i8], i64, i64, i64, i64, i32, i32, ptr, i64, i64, i64, i32, i32, i32, i32, i32, i32, i32, i64, ptr, ptr, ptr, ptr, i32, i32, ptr, ptr, i32, i32, i64, i64, i64, ptr, i32, ptr, i64, i32, i32, i32, i64, i32, i32, i32, i32, ptr, i32, i32, [41 x i8], i64, i32, ptr, i32, i32, i64, i64, i32, i32, i32, i32, i32, i64, [3 x i32], i32, i32, i32, [9 x i32], ptr, ptr, i32, i64, ptr, ptr, i32, i32, i32, i32, i64, i64, i64, i64, i64, i64, i64, i64, i64, i64, i32, i32, i64, i64, i32, i64, i64, i64, i64, i64, ptr, ptr, i32, ptr, i32, i32, i32, i64, i64, ptr, ptr, i32, i32, i32, i32, i32, ptr, ptr, ptr, i32, i32, i32, i32, i32, i32, i32, i64, i32, i64, i32, i32, i32, i32, i32, i32, i32, i64, ptr, ptr, i64, ptr, i32, %struct.aclInfo, i32, i64, i32, i32, i32, %struct.redisTLSContextConfig, ptr, ptr, ptr, ptr, ptr, i64, i32, ptr, i32, i32, i32, i64, i32, ptr }
%struct.connListener = type { [16 x i32], i32, ptr, i32, i32, ptr, ptr }
%struct.pause_event = type { i32, i64 }
%struct.malloc_stats = type { i64, i64, i64, i64, i64 }
%struct.anon = type { i64, i64, [16 x i64], i32 }
%struct.durationStats = type { i64, i64, i64 }
%struct.clientBufferLimitsConfig = type { i64, i64, i64 }
%struct.redisOpArray = type { ptr, i32, i32 }
%struct.aclInfo = type { i64, i64, i64, i64 }
%struct.redisTLSContextConfig = type { ptr, ptr, ptr, ptr, ptr, ptr, ptr, ptr, ptr, ptr, ptr, ptr, i32, i32, i32, i32 }
%struct.sigaction = type { %union.anon, %struct.__sigset_t, i32, ptr }
%union.anon = type { ptr }
%struct.__sigset_t = type { [16 x i64] }

@server = external global %struct.redisServer, align 8
@stdout = external global ptr, align 8

; Function Attrs: nounwind uwtable
define dso_local void @bugReportEnd(i32 noundef %killViaSignal, i32 noundef %sig) #0 {
entry:
  %killViaSignal.addr = alloca i32, align 4
  %sig.addr = alloca i32, align 4
  %act = alloca %struct.sigaction, align 8
  store i32 %killViaSignal, ptr %killViaSignal.addr, align 4
  store i32 %sig, ptr %sig.addr, align 4
  call void @serverLogRawFromHandler(i32 noundef 1027, ptr noundef @.str.289)
  %0 = load i32, ptr getelementptr inbounds (%struct.redisServer, ptr @server, i32 0, i32 176), align 4
  %tobool = icmp ne i32 %0, 0
  br i1 %tobool, label %land.lhs.true, label %if.end

land.lhs.true:                                    ; preds = %entry
  %1 = load i32, ptr getelementptr inbounds (%struct.redisServer, ptr @server, i32 0, i32 174), align 4
  %cmp = icmp eq i32 %1, 0
  br i1 %cmp, label %land.lhs.true1, label %if.end

land.lhs.true1:                                   ; preds = %land.lhs.true
  %2 = load ptr, ptr getelementptr inbounds (%struct.redisServer, ptr @server, i32 0, i32 23), align 8
  %tobool2 = icmp ne ptr %2, null
  br i1 %tobool2, label %if.then, label %if.end

if.then:                                          ; preds = %land.lhs.true1
  %3 = load ptr, ptr getelementptr inbounds (%struct.redisServer, ptr @server, i32 0, i32 23), align 8
  %call = call i32 @unlink(ptr noundef %3) #14
  br label %if.end

if.end:                                           ; preds = %if.then, %land.lhs.true1, %land.lhs.true, %entry
  %4 = load i32, ptr %killViaSignal.addr, align 4
  %tobool3 = icmp ne i32 %4, 0
  br i1 %tobool3, label %if.end9, label %if.then4

if.then4:                                         ; preds = %if.end
  %5 = load i32, ptr getelementptr inbounds (%struct.redisServer, ptr @server, i32 0, i32 256), align 4
  %tobool5 = icmp ne i32 %5, 0
  br i1 %tobool5, label %if.then6, label %if.end8

if.then6:                                         ; preds = %if.then4
  %6 = load ptr, ptr @stdout, align 8
  %call7 = call i32 @fflush(ptr noundef %6)
  call void @_exit(i32 noundef 1) #16
  unreachable

if.end8:                                          ; preds = %if.then4
  call void @abort() #12
  unreachable

if.end9:                                          ; preds = %if.end
  %sa_mask = getelementptr inbounds %struct.sigaction, ptr %act, i32 0, i32 1
  %call10 = call i32 @sigemptyset(ptr noundef %sa_mask) #14
  %sa_flags = getelementptr inbounds %struct.sigaction, ptr %act, i32 0, i32 2
  store i32 0, ptr %sa_flags, align 8
  %__sigaction_handler = getelementptr inbounds %struct.sigaction, ptr %act, i32 0, i32 0
  store ptr null, ptr %__sigaction_handler, align 8
  %7 = load i32, ptr %sig.addr, align 4
  %call11 = call i32 @sigaction(i32 noundef %7, ptr noundef %act, ptr noundef null) #14
  %call12 = call i32 @getpid() #14
  %8 = load i32, ptr %sig.addr, align 4
  %call13 = call i32 @kill(i32 noundef %call12, i32 noundef %8) #14
  ret void
}