; Function Attrs: nounwind uwtable
define dso_local void @bugReportEnd(i32 noundef %killViaSignal, i32 noundef %sig) local_unnamed_addr #0 {
entry:
  %act = alloca %struct.sigaction, align 8
  tail call void @serverLogRawFromHandler(i32 noundef 1027, ptr noundef nonnull @.str.289) #22
  %0 = load i32, ptr getelementptr inbounds (%struct.redisServer, ptr @server, i64 0, i32 176), align 4
  %tobool = icmp ne i32 %0, 0
  %1 = load i32, ptr getelementptr inbounds (%struct.redisServer, ptr @server, i64 0, i32 174), align 4
  %cmp = icmp eq i32 %1, 0
  %or.cond = select i1 %tobool, i1 %cmp, i1 false
  %2 = load ptr, ptr getelementptr inbounds (%struct.redisServer, ptr @server, i64 0, i32 23), align 8
  %tobool2 = icmp ne ptr %2, null
  %or.cond1 = select i1 %or.cond, i1 %tobool2, i1 false
  br i1 %or.cond1, label %if.then, label %if.end

if.then:                                          ; preds = %entry
  %call = tail call i32 @unlink(ptr noundef nonnull %2) #22
  br label %if.end

if.end:                                           ; preds = %if.then, %entry
  %tobool3.not = icmp eq i32 %killViaSignal, 0
  br i1 %tobool3.not, label %if.then4, label %if.end9

if.then4:                                         ; preds = %if.end
  %3 = load i32, ptr getelementptr inbounds (%struct.redisServer, ptr @server, i64 0, i32 256), align 4
  %tobool5.not = icmp eq i32 %3, 0
  br i1 %tobool5.not, label %if.end8, label %if.then6

if.then6:                                         ; preds = %if.then4
  %4 = load ptr, ptr @stdout, align 8
  %call7 = tail call i32 @fflush(ptr noundef %4)
  tail call void @_exit(i32 noundef 1) #25
  unreachable

if.end8:                                          ; preds = %if.then4
  tail call void @abort() #25
  unreachable

if.end9:                                          ; preds = %if.end
  %sa_mask = getelementptr inbounds i8, ptr %act, i64 8
  %call10 = call i32 @sigemptyset(ptr noundef nonnull %sa_mask) #22
  %sa_flags = getelementptr inbounds i8, ptr %act, i64 136
  store i32 0, ptr %sa_flags, align 8
  store ptr null, ptr %act, align 8
  %call11 = call i32 @sigaction(i32 noundef %sig, ptr noundef nonnull %act, ptr noundef null) #22
  %call12 = call i32 @getpid() #22
  %call13 = call i32 @kill(i32 noundef %call12, i32 noundef %sig) #22
  ret void
}